; Function Attrs: nounwind uwtable
define hidden ptr @magic_file(ptr noundef %0, ptr noundef %1) local_unnamed_addr #0 {
  %3 = icmp eq ptr %0, null
  br i1 %3, label %6, label %4

4:                                                ; preds = %2
  %5 = tail call fastcc ptr @file_or_stream(ptr noundef nonnull %0, ptr noundef %1, ptr noundef null)
  br label %6

6:                                                ; preds = %2, %4
  %.0 = phi ptr [ %5, %4 ], [ null, %2 ]
  ret ptr %.0
}